; Function Attrs: mustprogress nofree norecurse nosync nounwind willreturn memory(argmem: read) uwtable
define i32 @jsonnet_json_extract_bool(ptr nocapture noundef readnone %0, ptr nocapture noundef readonly %1) local_unnamed_addr #5 {
  %3 = load i32, ptr %1, align 8
  %.not = icmp eq i32 %3, 1
  br i1 %.not, label %4, label %9

4:                                                ; preds = %2
  %5 = getelementptr inbounds i8, ptr %1, i64 40
  %6 = load double, ptr %5, align 8
  %7 = fcmp une double %6, 0.000000e+00
  %8 = zext i1 %7 to i32
  br label %9

9:                                                ; preds = %2, %4
  %.0 = phi i32 [ %8, %4 ], [ 2, %2 ]
  ret i32 %.0
}